#include <math.h>
#include <stdio.h>
#include <stdlib.h>
#include <string.h>


int main()
{
	struct number
	{
		int num,status;
	}
	a[20000];
	int n,i,j,count;
	scanf("%d",&n);
	count=n;
	for (i=0;i<n;i++)
	{
		scanf("%d",&a[i].num);
		a[i].status=1;
	}
	for (i=0;i<n;i++)
	{
		for (j=0;j<i;j++)
		{
			if (a[i].num==a[j].num)
			{
				a[i].status=0;
				count--;
				break;
			}
		}
	}
	for (i=0,j=0;i<n;i++)
	{
		if (a[i].status && j!=count-1)
		{
			printf("%d ",a[i].num);
			j++;
			continue;
		}
		if (a[i].status && j==count-1)
		{
			printf("%d\n",a[i].num);
			break;
		}
	}
	return 0;
}