; ModuleID = '13/1284.c'
source_filename = "13/1284.c"
target datalayout = "e-m:e-p270:32:32-p271:32:32-p272:64:64-i64:64-f80:128-n8:16:32:64-S128"
target triple = "x86_64-pc-linux-gnu"

%struct.number = type { i32, i32 }

@.str = private unnamed_addr constant [3 x i8] c"%d\00", align 1
@.str.1 = private unnamed_addr constant [4 x i8] c"%d \00", align 1
@.str.2 = private unnamed_addr constant [4 x i8] c"%d\0A\00", align 1

; Function Attrs: noinline nounwind uwtable
define dso_local i32 @main() #0 {
  %1 = alloca i32, align 4
  %2 = alloca [20000 x %struct.number], align 16
  %3 = alloca i32, align 4
  %4 = alloca i32, align 4
  %5 = alloca i32, align 4
  %6 = alloca i32, align 4
  store i32 0, i32* %1, align 4
  %7 = call i32 (i8*, ...) @__isoc99_scanf(i8* getelementptr inbounds ([3 x i8], [3 x i8]* @.str, i64 0, i64 0), i32* %3)
  %8 = load i32, i32* %3, align 4
  store i32 %8, i32* %6, align 4
  store i32 0, i32* %4, align 4
  br label %9

9:                                                ; preds = %23, %0
  %10 = load i32, i32* %4, align 4
  %11 = load i32, i32* %3, align 4
  %12 = icmp slt i32 %10, %11
  br i1 %12, label %13, label %26

13:                                               ; preds = %9
  %14 = load i32, i32* %4, align 4
  %15 = sext i32 %14 to i64
  %16 = getelementptr inbounds [20000 x %struct.number], [20000 x %struct.number]* %2, i64 0, i64 %15
  %17 = getelementptr inbounds %struct.number, %struct.number* %16, i32 0, i32 0
  %18 = call i32 (i8*, ...) @__isoc99_scanf(i8* getelementptr inbounds ([3 x i8], [3 x i8]* @.str, i64 0, i64 0), i32* %17)
  %19 = load i32, i32* %4, align 4
  %20 = sext i32 %19 to i64
  %21 = getelementptr inbounds [20000 x %struct.number], [20000 x %struct.number]* %2, i64 0, i64 %20
  %22 = getelementptr inbounds %struct.number, %struct.number* %21, i32 0, i32 1
  store i32 1, i32* %22, align 4
  br label %23

23:                                               ; preds = %13
  %24 = load i32, i32* %4, align 4
  %25 = add nsw i32 %24, 1
  store i32 %25, i32* %4, align 4
  br label %9

26:                                               ; preds = %9
  store i32 0, i32* %4, align 4
  br label %27

27:                                               ; preds = %60, %26
  %28 = load i32, i32* %4, align 4
  %29 = load i32, i32* %3, align 4
  %30 = icmp slt i32 %28, %29
  br i1 %30, label %31, label %63

31:                                               ; preds = %27
  store i32 0, i32* %5, align 4
  br label %32

32:                                               ; preds = %56, %31
  %33 = load i32, i32* %5, align 4
  %34 = load i32, i32* %4, align 4
  %35 = icmp slt i32 %33, %34
  br i1 %35, label %36, label %59

36:                                               ; preds = %32
  %37 = load i32, i32* %4, align 4
  %38 = sext i32 %37 to i64
  %39 = getelementptr inbounds [20000 x %struct.number], [20000 x %struct.number]* %2, i64 0, i64 %38
  %40 = getelementptr inbounds %struct.number, %struct.number* %39, i32 0, i32 0
  %41 = load i32, i32* %40, align 8
  %42 = load i32, i32* %5, align 4
  %43 = sext i32 %42 to i64
  %44 = getelementptr inbounds [20000 x %struct.number], [20000 x %struct.number]* %2, i64 0, i64 %43
  %45 = getelementptr inbounds %struct.number, %struct.number* %44, i32 0, i32 0
  %46 = load i32, i32* %45, align 8
  %47 = icmp eq i32 %41, %46
  br i1 %47, label %48, label %55

48:                                               ; preds = %36
  %49 = load i32, i32* %4, align 4
  %50 = sext i32 %49 to i64
  %51 = getelementptr inbounds [20000 x %struct.number], [20000 x %struct.number]* %2, i64 0, i64 %50
  %52 = getelementptr inbounds %struct.number, %struct.number* %51, i32 0, i32 1
  store i32 0, i32* %52, align 4
  %53 = load i32, i32* %6, align 4
  %54 = add nsw i32 %53, -1
  store i32 %54, i32* %6, align 4
  br label %59

55:                                               ; preds = %36
  br label %56

56:                                               ; preds = %55
  %57 = load i32, i32* %5, align 4
  %58 = add nsw i32 %57, 1
  store i32 %58, i32* %5, align 4
  br label %32

59:                                               ; preds = %48, %32
  br label %60

60:                                               ; preds = %59
  %61 = load i32, i32* %4, align 4
  %62 = add nsw i32 %61, 1
  store i32 %62, i32* %4, align 4
  br label %27

63:                                               ; preds = %27
  store i32 0, i32* %4, align 4
  store i32 0, i32* %5, align 4
  br label %64

64:                                               ; preds = %109, %63
  %65 = load i32, i32* %4, align 4
  %66 = load i32, i32* %3, align 4
  %67 = icmp slt i32 %65, %66
  br i1 %67, label %68, label %112

68:                                               ; preds = %64
  %69 = load i32, i32* %4, align 4
  %70 = sext i32 %69 to i64
  %71 = getelementptr inbounds [20000 x %struct.number], [20000 x %struct.number]* %2, i64 0, i64 %70
  %72 = getelementptr inbounds %struct.number, %struct.number* %71, i32 0, i32 1
  %73 = load i32, i32* %72, align 4
  %74 = icmp ne i32 %73, 0
  br i1 %74, label %75, label %89

75:                                               ; preds = %68
  %76 = load i32, i32* %5, align 4
  %77 = load i32, i32* %6, align 4
  %78 = sub nsw i32 %77, 1
  %79 = icmp ne i32 %76, %78
  br i1 %79, label %80, label %89

80:                                               ; preds = %75
  %81 = load i32, i32* %4, align 4
  %82 = sext i32 %81 to i64
  %83 = getelementptr inbounds [20000 x %struct.number], [20000 x %struct.number]* %2, i64 0, i64 %82
  %84 = getelementptr inbounds %struct.number, %struct.number* %83, i32 0, i32 0
  %85 = load i32, i32* %84, align 8
  %86 = call i32 (i8*, ...) @printf(i8* getelementptr inbounds ([4 x i8], [4 x i8]* @.str.1, i64 0, i64 0), i32 %85)
  %87 = load i32, i32* %5, align 4
  %88 = add nsw i32 %87, 1
  store i32 %88, i32* %5, align 4
  br label %109

89:                                               ; preds = %75, %68
  %90 = load i32, i32* %4, align 4
  %91 = sext i32 %90 to i64
  %92 = getelementptr inbounds [20000 x %struct.number], [20000 x %struct.number]* %2, i64 0, i64 %91
  %93 = getelementptr inbounds %struct.number, %struct.number* %92, i32 0, i32 1
  %94 = load i32, i32* %93, align 4
  %95 = icmp ne i32 %94, 0
  br i1 %95, label %96, label %108

96:                                               ; preds = %89
  %97 = load i32, i32* %5, align 4
  %98 = load i32, i32* %6, align 4
  %99 = sub nsw i32 %98, 1
  %100 = icmp eq i32 %97, %99
  br i1 %100, label %101, label %108

101:                                              ; preds = %96
  %102 = load i32, i32* %4, align 4
  %103 = sext i32 %102 to i64
  %104 = getelementptr inbounds [20000 x %struct.number], [20000 x %struct.number]* %2, i64 0, i64 %103
  %105 = getelementptr inbounds %struct.number, %struct.number* %104, i32 0, i32 0
  %106 = load i32, i32* %105, align 8
  %107 = call i32 (i8*, ...) @printf(i8* getelementptr inbounds ([4 x i8], [4 x i8]* @.str.2, i64 0, i64 0), i32 %106)
  br label %112

108:                                              ; preds = %96, %89
  br label %109

109:                                              ; preds = %108, %80
  %110 = load i32, i32* %4, align 4
  %111 = add nsw i32 %110, 1
  store i32 %111, i32* %4, align 4
  br label %64

112:                                              ; preds = %101, %64
  ret i32 0
}

declare dso_local i32 @__isoc99_scanf(i8*, ...) #1

declare dso_local i32 @printf(i8*, ...) #1


!llvm.module.flags = !{!0}
!llvm.ident = !{!1}

!0 = !{i32 1, !"wchar_size", i32 4}
!1 = !{!"clang version 10.0.0-4ubuntu1 "}
